target datalayout = "e-m:e-p270:32:32-p271:32:32-p272:64:64-i64:64-i128:128-f80:128-n8:16:32:64-S128"
target triple = "x86_64-pc-linux-gnu"

@.str.6 = private unnamed_addr constant [2 x i8] c"C\00", align 1
@.str.7 = private unnamed_addr constant [6 x i8] c"POSIX\00", align 1
@__const.check_force_ascii.ascii_aliases = private unnamed_addr constant [14 x ptr] [ptr @.str.8, ptr @.str.9, ptr @.str.10, ptr @.str.11, ptr @.str.12, ptr @.str.13, ptr @.str.14, ptr @.str.15, ptr @.str.16, ptr @.str.17, ptr @.str.18, ptr @.str.19, ptr @.str.20, ptr null], align 16

; Function Attrs: inlinehint nounwind uwtable
define internal i32 @Py_UNICODE_IS_SURROGATE(i32 noundef %0) #7 {
  %2 = alloca i32, align 4
  store i32 %0, ptr %2, align 4, !tbaa !4
  %3 = load i32, ptr %2, align 4, !tbaa !4
  %4 = icmp ule i32 55296, %3
  br i1 %4, label %5, label %8

5:                                                ; preds = %1
  %6 = load i32, ptr %2, align 4, !tbaa !4
  %7 = icmp ule i32 %6, 57343
  br label %8

8:                                                ; preds = %5, %1
  %9 = phi i1 [ false, %1 ], [ %7, %5 ]
  %10 = zext i1 %9 to i32
  ret i32 %10
}

; Function Attrs: nounwind uwtable
define internal i32 @is_valid_wide_char(i32 noundef %0) #0 {
  %2 = alloca i32, align 4
  %3 = alloca i32, align 4
  store i32 %0, ptr %3, align 4, !tbaa !4
  %4 = load i32, ptr %3, align 4, !tbaa !4
  %5 = call i32 @Py_UNICODE_IS_SURROGATE(i32 noundef %4)
  %6 = icmp ne i32 %5, 0
  br i1 %6, label %7, label %8

7:                                                ; preds = %1
  store i32 0, ptr %2, align 4
  br label %13

8:                                                ; preds = %1
  %9 = load i32, ptr %3, align 4, !tbaa !4
  %10 = icmp sgt i32 %9, 1114111
  br i1 %10, label %11, label %12

11:                                               ; preds = %8
  store i32 0, ptr %2, align 4
  br label %13

12:                                               ; preds = %8
  store i32 1, ptr %2, align 4
  br label %13

13:                                               ; preds = %12, %11, %7
  %14 = load i32, ptr %2, align 4
  ret i32 %14
}

; Function Attrs: nounwind uwtable
define internal i64 @_Py_mbstowcs(ptr noundef %0, ptr noundef %1, i64 noundef %2) #0 {
  %4 = alloca i64, align 8
  %5 = alloca ptr, align 8
  %6 = alloca ptr, align 8
  %7 = alloca i64, align 8
  %8 = alloca i64, align 8
  %9 = alloca i64, align 8
  %10 = alloca i32, align 4
  %11 = alloca i32, align 4
  store ptr %0, ptr %5, align 8, !tbaa !177
  store ptr %1, ptr %6, align 8, !tbaa !180
  store i64 %2, ptr %7, align 8, !tbaa !186
  call void @llvm.lifetime.start.p0(i64 8, ptr %8) #10
  %12 = load ptr, ptr %5, align 8, !tbaa !177
  %13 = load ptr, ptr %6, align 8, !tbaa !180
  %14 = load i64, ptr %7, align 8, !tbaa !186
  %15 = call i64 @mbstowcs(ptr noundef %12, ptr noundef %13, i64 noundef %14) #10
  store i64 %15, ptr %8, align 8, !tbaa !186
  %16 = load ptr, ptr %5, align 8, !tbaa !177
  %17 = icmp ne ptr %16, null
  br i1 %17, label %18, label %46

18:                                               ; preds = %3
  %19 = load i64, ptr %8, align 8, !tbaa !186
  %20 = icmp ne i64 %19, -1
  br i1 %20, label %21, label %46

21:                                               ; preds = %18
  call void @llvm.lifetime.start.p0(i64 8, ptr %9) #10
  store i64 0, ptr %9, align 8, !tbaa !186
  br label %22

22:                                               ; preds = %40, %21
  %23 = load i64, ptr %9, align 8, !tbaa !186
  %24 = load i64, ptr %8, align 8, !tbaa !186
  %25 = icmp ult i64 %23, %24
  br i1 %25, label %27, label %26

26:                                               ; preds = %22
  store i32 2, ptr %10, align 4
  br label %43

27:                                               ; preds = %22
  call void @llvm.lifetime.start.p0(i64 4, ptr %11) #10
  %28 = load ptr, ptr %5, align 8, !tbaa !177
  %29 = load i64, ptr %9, align 8, !tbaa !186
  %30 = getelementptr i32, ptr %28, i64 %29
  %31 = load i32, ptr %30, align 4, !tbaa !4
  store i32 %31, ptr %11, align 4, !tbaa !4
  %32 = load i32, ptr %11, align 4, !tbaa !4
  %33 = call i32 @is_valid_wide_char(i32 noundef %32)
  %34 = icmp ne i32 %33, 0
  br i1 %34, label %36, label %35

35:                                               ; preds = %27
  store i64 -1, ptr %4, align 8
  store i32 1, ptr %10, align 4
  br label %37

36:                                               ; preds = %27
  store i32 0, ptr %10, align 4
  br label %37

37:                                               ; preds = %36, %35
  call void @llvm.lifetime.end.p0(i64 4, ptr %11) #10
  %38 = load i32, ptr %10, align 4
  switch i32 %38, label %43 [
    i32 0, label %39
  ]

39:                                               ; preds = %37
  br label %40

40:                                               ; preds = %39
  %41 = load i64, ptr %9, align 8, !tbaa !186
  %42 = add i64 %41, 1
  store i64 %42, ptr %9, align 8, !tbaa !186
  br label %22, !llvm.loop !215

43:                                               ; preds = %37, %26
  call void @llvm.lifetime.end.p0(i64 8, ptr %9) #10
  %44 = load i32, ptr %10, align 4
  switch i32 %44, label %48 [
    i32 2, label %45
  ]

45:                                               ; preds = %43
  br label %46

46:                                               ; preds = %45, %18, %3
  %47 = load i64, ptr %8, align 8, !tbaa !186
  store i64 %47, ptr %4, align 8
  store i32 1, ptr %10, align 4
  br label %48

48:                                               ; preds = %46, %43
  call void @llvm.lifetime.end.p0(i64 8, ptr %8) #10
  %49 = load i64, ptr %4, align 8
  ret i64 %49
}

; Function Attrs: nounwind uwtable
define internal i32 @check_force_ascii() #0 {
  %1 = alloca i32, align 4
  %2 = alloca ptr, align 8
  %3 = alloca i32, align 4
  %4 = alloca ptr, align 8
  %5 = alloca [20 x i8], align 16
  %6 = alloca [14 x ptr], align 16
  %7 = alloca i32, align 4
  %8 = alloca ptr, align 8
  %9 = alloca i32, align 4
  %10 = alloca [1 x i8], align 1
  %11 = alloca [1 x i32], align 4
  %12 = alloca i64, align 8
  %13 = alloca i32, align 4
  call void @llvm.lifetime.start.p0(i64 8, ptr %2) #10
  %14 = call ptr @setlocale(i32 noundef 0, ptr noundef null) #10
  store ptr %14, ptr %2, align 8, !tbaa !180
  %15 = load ptr, ptr %2, align 8, !tbaa !180
  %16 = icmp eq ptr %15, null
  br i1 %16, label %17, label %18

17:                                               ; preds = %0
  br label %95

18:                                               ; preds = %0
  %19 = load ptr, ptr %2, align 8, !tbaa !180
  %20 = call i32 @strcmp(ptr noundef %19, ptr noundef @.str.6) #11
  %21 = icmp ne i32 %20, 0
  br i1 %21, label %22, label %27

22:                                               ; preds = %18
  %23 = load ptr, ptr %2, align 8, !tbaa !180
  %24 = call i32 @strcmp(ptr noundef %23, ptr noundef @.str.7) #11
  %25 = icmp ne i32 %24, 0
  br i1 %25, label %26, label %27

26:                                               ; preds = %22
  store i32 0, ptr %1, align 4
  store i32 1, ptr %3, align 4
  br label %96

27:                                               ; preds = %22, %18
  %28 = call ptr @nl_langinfo(i32 noundef 14) #10
  store ptr %28, ptr %4, align 8, !tbaa !180
  %29 = load ptr, ptr %4, align 8, !tbaa !180
  %30 = icmp ne ptr %29, null
  br i1 %30, label %31, label %37

31:                                               ; preds = %27
  %32 = load ptr, ptr %4, align 8, !tbaa !180
  %33 = getelementptr i8, ptr %32, i64 0
  %34 = load i8, ptr %33, align 1, !tbaa !181
  %35 = sext i8 %34 to i32
  %36 = icmp eq i32 %35, 0
  br i1 %36, label %37, label %38

37:                                               ; preds = %31, %27
  br label %95

38:                                               ; preds = %31
  %39 = load ptr, ptr %4, align 8, !tbaa !180
  %40 = getelementptr inbounds [20 x i8], ptr %5, i64 0, i64 0
  %41 = call i32 @_Py_normalize_encoding(ptr noundef %39, ptr noundef %40, i64 noundef 20)
  %42 = icmp ne i32 %41, 0
  br i1 %42, label %44, label %43

43:                                               ; preds = %38
  br label %95

44:                                               ; preds = %38
  call void @llvm.memcpy.p0.p0.i64(ptr align 16 %6, ptr align 16 @__const.check_force_ascii.ascii_aliases, i64 112, i1 false)
  store i32 0, ptr %7, align 4, !tbaa !4
  call void @llvm.lifetime.start.p0(i64 8, ptr %8) #10
  %45 = getelementptr inbounds [14 x ptr], ptr %6, i64 0, i64 0
  store ptr %45, ptr %8, align 8, !tbaa !182
  br label %46

46:                                               ; preds = %59, %44
  %47 = load ptr, ptr %8, align 8, !tbaa !182
  %48 = load ptr, ptr %47, align 8, !tbaa !180
  %49 = icmp ne ptr %48, null
  br i1 %49, label %51, label %50

50:                                               ; preds = %46
  store i32 3, ptr %3, align 4
  br label %62

51:                                               ; preds = %46
  %52 = getelementptr inbounds [20 x i8], ptr %5, i64 0, i64 0
  %53 = load ptr, ptr %8, align 8, !tbaa !182
  %54 = load ptr, ptr %53, align 8, !tbaa !180
  %55 = call i32 @strcmp(ptr noundef %52, ptr noundef %54) #11
  %56 = icmp eq i32 %55, 0
  br i1 %56, label %57, label %58

57:                                               ; preds = %51
  store i32 1, ptr %7, align 4, !tbaa !4
  store i32 3, ptr %3, align 4
  br label %62

58:                                               ; preds = %51
  br label %59

59:                                               ; preds = %58
  %60 = load ptr, ptr %8, align 8, !tbaa !182
  %61 = getelementptr ptr, ptr %60, i32 1
  store ptr %61, ptr %8, align 8, !tbaa !182
  br label %46, !llvm.loop !184

62:                                               ; preds = %57, %50
  call void @llvm.lifetime.end.p0(i64 8, ptr %8) #10
  br label %63

63:                                               ; preds = %62
  %64 = load i32, ptr %7, align 4, !tbaa !4
  %65 = icmp ne i32 %64, 0
  br i1 %65, label %67, label %66

66:                                               ; preds = %63
  store i32 0, ptr %1, align 4
  store i32 1, ptr %3, align 4
  br label %96

67:                                               ; preds = %63
  call void @llvm.lifetime.start.p0(i64 4, ptr %9) #10
  store i32 128, ptr %9, align 4, !tbaa !4
  br label %68

68:                                               ; preds = %89, %67
  %69 = load i32, ptr %9, align 4, !tbaa !4
  %70 = icmp ule i32 %69, 255
  br i1 %70, label %72, label %71

71:                                               ; preds = %68
  store i32 6, ptr %3, align 4
  br label %92

72:                                               ; preds = %68
  call void @llvm.lifetime.start.p0(i64 1, ptr %10) #10
  call void @llvm.lifetime.start.p0(i64 4, ptr %11) #10
  call void @llvm.lifetime.start.p0(i64 8, ptr %12) #10
  call void @llvm.lifetime.start.p0(i64 4, ptr %13) #10
  %73 = load i32, ptr %9, align 4, !tbaa !4
  %74 = trunc i32 %73 to i8
  %75 = zext i8 %74 to i32
  store i32 %75, ptr %13, align 4, !tbaa !4
  %76 = load i32, ptr %13, align 4, !tbaa !4
  %77 = trunc i32 %76 to i8
  %78 = getelementptr [1 x i8], ptr %10, i64 0, i64 0
  store i8 %77, ptr %78, align 1, !tbaa !181
  %79 = getelementptr inbounds [1 x i32], ptr %11, i64 0, i64 0
  %80 = getelementptr inbounds [1 x i8], ptr %10, i64 0, i64 0
  %81 = call i64 @_Py_mbstowcs(ptr noundef %79, ptr noundef %80, i64 noundef 1)
  store i64 %81, ptr %12, align 8, !tbaa !186
  %82 = load i64, ptr %12, align 8, !tbaa !186
  %83 = icmp ne i64 %82, -1
  br i1 %83, label %84, label %85

84:                                               ; preds = %72
  store i32 1, ptr %1, align 4
  store i32 1, ptr %3, align 4
  br label %86

85:                                               ; preds = %72
  store i32 0, ptr %3, align 4
  br label %86

86:                                               ; preds = %85, %84
  call void @llvm.lifetime.end.p0(i64 4, ptr %13) #10
  call void @llvm.lifetime.end.p0(i64 8, ptr %12) #10
  call void @llvm.lifetime.end.p0(i64 4, ptr %11) #10
  call void @llvm.lifetime.end.p0(i64 1, ptr %10) #10
  %87 = load i32, ptr %3, align 4
  switch i32 %87, label %92 [
    i32 0, label %88
  ]

88:                                               ; preds = %86
  br label %89

89:                                               ; preds = %88
  %90 = load i32, ptr %9, align 4, !tbaa !4
  %91 = add i32 %90, 1
  store i32 %91, ptr %9, align 4, !tbaa !4
  br label %68, !llvm.loop !187

92:                                               ; preds = %86, %71
  call void @llvm.lifetime.end.p0(i64 4, ptr %9) #10
  %93 = load i32, ptr %3, align 4
  switch i32 %93, label %96 [
    i32 6, label %94
  ]

94:                                               ; preds = %92
  store i32 0, ptr %1, align 4
  store i32 1, ptr %3, align 4
  br label %96

95:                                               ; preds = %43, %37, %17
  store i32 1, ptr %1, align 4
  store i32 1, ptr %3, align 4
  br label %96

96:                                               ; preds = %95, %94, %92, %66, %26
  call void @llvm.lifetime.end.p0(i64 8, ptr %2) #10
  %97 = load i32, ptr %1, align 4
  ret i32 %97
}