; Function Attrs: nounwind uwtable
define internal fastcc range(i32 0, 2) i32 @check_force_ascii() unnamed_addr #0 {
  %1 = alloca [20 x i8], align 16
  %2 = alloca [1 x i8], align 1
  %3 = alloca [1 x i32], align 4
  %4 = tail call ptr @setlocale(i32 noundef 0, ptr noundef null) #17
  %5 = icmp eq ptr %4, null
  br i1 %5, label %.critedge, label %sub_0

sub_0:                                            ; preds = %0
  %6 = load i8, ptr %4, align 1
  %.not37 = icmp eq i8 %6, 67
  br i1 %.not37, label %.tail, label %.tail.thread

.tail:                                            ; preds = %sub_0
  %7 = getelementptr inbounds nuw i8, ptr %4, i64 1
  %8 = load i8, ptr %7, align 1
  %9 = icmp eq i8 %8, 0
  br i1 %9, label %11, label %.tail.thread

.tail.thread:                                     ; preds = %sub_0, %.tail
  %10 = tail call i32 @strcmp(ptr noundef nonnull dereferenceable(1) %4, ptr noundef nonnull dereferenceable(6) @.str.7) #18
  %.not26 = icmp eq i32 %10, 0
  br i1 %.not26, label %11, label %.critedge

11:                                               ; preds = %.tail.thread, %.tail
  %12 = tail call ptr @nl_langinfo(i32 noundef 14) #17
  %.not27 = icmp eq ptr %12, null
  br i1 %.not27, label %.critedge, label %13

13:                                               ; preds = %11
  %14 = load i8, ptr %12, align 1, !tbaa !175
  %15 = icmp eq i8 %14, 0
  br i1 %15, label %.critedge, label %16

16:                                               ; preds = %13
  %17 = call i32 @_Py_normalize_encoding(ptr noundef nonnull %12, ptr noundef nonnull %1, i64 noundef 20) #17
  %.not28 = icmp eq i32 %17, 0
  br i1 %.not28, label %.critedge, label %.preheader34

18:                                               ; preds = %.preheader34
  %19 = getelementptr i8, ptr %.02135, i64 8
  %20 = load ptr, ptr %19, align 8, !tbaa !177
  %.not29 = icmp eq ptr %20, null
  br i1 %.not29, label %.critedge, label %.preheader34, !llvm.loop !178

.preheader34:                                     ; preds = %16, %18
  %21 = phi ptr [ %20, %18 ], [ @.str.8, %16 ]
  %.02135 = phi ptr [ %19, %18 ], [ @__const.check_force_ascii.ascii_aliases, %16 ]
  %22 = call i32 @strcmp(ptr noundef nonnull dereferenceable(1) %1, ptr noundef nonnull dereferenceable(1) %21) #18
  %23 = icmp eq i32 %22, 0
  br i1 %23, label %.preheader, label %18

.preheader:                                       ; preds = %.preheader34, %_Py_mbstowcs.exit.thread
  %.02036 = phi i32 [ %31, %_Py_mbstowcs.exit.thread ], [ 128, %.preheader34 ]
  call void @llvm.lifetime.start.p0(i64 1, ptr nonnull %2) #17
  call void @llvm.lifetime.start.p0(i64 4, ptr nonnull %3) #17
  %24 = trunc nuw i32 %.02036 to i8
  store i8 %24, ptr %2, align 1, !tbaa !175
  %25 = call i64 @mbstowcs(ptr noundef nonnull %3, ptr noundef nonnull %2, i64 noundef 1) #17
  %26 = add i64 %25, -1
  %27 = icmp ult i64 %26, -2
  br i1 %27, label %.lr.ph.i.preheader, label %_Py_mbstowcs.exit

.lr.ph.i.preheader:                               ; preds = %.preheader
  %28 = load i32, ptr %3, align 4, !tbaa !180
  %29 = and i32 %28, -2048
  %.not.i.i = icmp eq i32 %29, 55296
  %30 = icmp sgt i32 %28, 1114111
  %narrow.i.not.i = or i1 %30, %.not.i.i
  call void @llvm.lifetime.end.p0(i64 4, ptr nonnull %3) #17
  call void @llvm.lifetime.end.p0(i64 1, ptr nonnull %2) #17
  br i1 %narrow.i.not.i, label %_Py_mbstowcs.exit.thread, label %.critedge

_Py_mbstowcs.exit:                                ; preds = %.preheader
  %.not31 = icmp eq i64 %25, -1
  call void @llvm.lifetime.end.p0(i64 4, ptr nonnull %3) #17
  call void @llvm.lifetime.end.p0(i64 1, ptr nonnull %2) #17
  br i1 %.not31, label %_Py_mbstowcs.exit.thread, label %.critedge

_Py_mbstowcs.exit.thread:                         ; preds = %.lr.ph.i.preheader, %_Py_mbstowcs.exit
  %31 = add nuw nsw i32 %.02036, 1
  %exitcond.not = icmp eq i32 %31, 256
  br i1 %exitcond.not, label %.critedge, label %.preheader, !llvm.loop !181

.critedge:                                        ; preds = %18, %_Py_mbstowcs.exit, %_Py_mbstowcs.exit.thread, %.lr.ph.i.preheader, %0, %13, %11, %16, %.tail.thread
  %.0 = phi i32 [ 0, %.tail.thread ], [ 1, %16 ], [ 1, %11 ], [ 1, %13 ], [ 1, %0 ], [ 1, %.lr.ph.i.preheader ], [ 1, %_Py_mbstowcs.exit ], [ 0, %_Py_mbstowcs.exit.thread ], [ 0, %18 ]
  ret i32 %.0
}